; Function Attrs: mustprogress uwtable
define void @_ZN2mu10ParserBase15InitTokenReaderEv(ptr noundef nonnull align 8 dereferenceable(596) %0) local_unnamed_addr #7 align 2 personality ptr @__gxx_personality_v0 {
  %2 = tail call noalias noundef nonnull dereferenceable(400) ptr @_Znwm(i64 noundef 400) #30
  invoke void @_ZN2mu17ParserTokenReaderC1EPNS_10ParserBaseE(ptr noundef nonnull align 8 dereferenceable(400) %2, ptr noundef nonnull %0)
          to label %3 unwind label %6

3:                                                ; preds = %1
  %4 = getelementptr inbounds i8, ptr %0, i64 120
  %5 = load ptr, ptr %4, align 8
  store ptr %2, ptr %4, align 8
  %.not.i.i = icmp eq ptr %5, null
  br i1 %.not.i.i, label %_ZNSt10unique_ptrIN2mu17ParserTokenReaderESt14default_deleteIS1_EE5resetEPS1_.exit, label %_ZNKSt14default_deleteIN2mu17ParserTokenReaderEEclEPS1_.exit.i.i

_ZNKSt14default_deleteIN2mu17ParserTokenReaderEEclEPS1_.exit.i.i: ; preds = %3
  tail call void @_ZN2mu17ParserTokenReaderD2Ev(ptr noundef nonnull align 8 dereferenceable(400) %5) #23
  tail call void @_ZdlPv(ptr noundef nonnull %5) #31
  br label %_ZNSt10unique_ptrIN2mu17ParserTokenReaderESt14default_deleteIS1_EE5resetEPS1_.exit

_ZNSt10unique_ptrIN2mu17ParserTokenReaderESt14default_deleteIS1_EE5resetEPS1_.exit: ; preds = %3, %_ZNKSt14default_deleteIN2mu17ParserTokenReaderEEclEPS1_.exit.i.i
  ret void

6:                                                ; preds = %1
  %7 = landingpad { ptr, i32 }
          cleanup
  tail call void @_ZdlPv(ptr noundef nonnull %2) #31
  resume { ptr, i32 } %7
}